target datalayout = "e-m:e-p270:32:32-p271:32:32-p272:64:64-i64:64-i128:128-f80:128-n8:16:32:64-S128"
target triple = "x86_64-pc-linux-gnu"

%struct.SDL_Surface = type { i32, i32, i32, i32, i32, ptr, i32, ptr, i32, i32, ptr, i32, ptr, i32, ptr, i32, %struct.SDL_Rect, %struct.SDL_BlitMap }
%struct.SDL_Rect = type { i32, i32, i32, i32 }
%struct.SDL_BlitMap = type { i32, ptr, ptr, %struct.SDL_BlitInfo, i32, i32 }
%struct.SDL_BlitInfo = type { ptr, ptr, i32, i32, i32, i32, ptr, ptr, i32, i32, i32, i32, ptr, ptr, ptr, ptr, ptr, ptr, i32, i32, i8, i8, i8, i8 }
%struct.SDL_Palette = type { i32, ptr, i32, i32 }
%struct.SDL_Color = type { i8, i8, i8, i8 }

@SDL_surface_magic = internal global i8 0, align 1
@.str = private unnamed_addr constant [26 x i8] c"Parameter '%s' is invalid\00", align 1
@.str.5 = private unnamed_addr constant [8 x i8] c"surface\00", align 1
@.str.8 = private unnamed_addr constant [34 x i8] c"The surface is not indexed format\00", align 1
@.str.9 = private unnamed_addr constant [79 x i8] c"SDL_SetSurfacePalette() passed a palette that doesn't match the surface format\00", align 1

; Function Attrs: nounwind uwtable
define hidden zeroext i1 @SDL_SetSurfacePalette_REAL(ptr noundef %0, ptr noundef %1) #0 {
  %3 = alloca i1, align 1
  %4 = alloca ptr, align 8
  %5 = alloca ptr, align 8
  store ptr %0, ptr %4, align 8
  store ptr %1, ptr %5, align 8
  %6 = load ptr, ptr %4, align 8
  %7 = call zeroext i1 @SDL_SurfaceValid(ptr noundef %6)
  br i1 %7, label %10, label %8

8:                                                ; preds = %2
  %9 = call zeroext i1 (ptr, ...) @SDL_SetError_REAL(ptr noundef @.str, ptr noundef @.str.5)
  store i1 %9, ptr %3, align 1
  br label %75

10:                                               ; preds = %2
  %11 = load ptr, ptr %5, align 8
  %12 = icmp ne ptr %11, null
  br i1 %12, label %13, label %41

13:                                               ; preds = %10
  %14 = load ptr, ptr %5, align 8
  %15 = getelementptr inbounds nuw %struct.SDL_Palette, ptr %14, i32 0, i32 0
  %16 = load i32, ptr %15, align 8
  %17 = load ptr, ptr %4, align 8
  %18 = getelementptr inbounds nuw %struct.SDL_Surface, ptr %17, i32 0, i32 1
  %19 = load i32, ptr %18, align 4
  %20 = icmp ne i32 %19, 0
  br i1 %20, label %21, label %29

21:                                               ; preds = %13
  %22 = load ptr, ptr %4, align 8
  %23 = getelementptr inbounds nuw %struct.SDL_Surface, ptr %22, i32 0, i32 1
  %24 = load i32, ptr %23, align 4
  %25 = lshr i32 %24, 28
  %26 = and i32 %25, 15
  %27 = icmp ne i32 %26, 1
  br i1 %27, label %28, label %29

28:                                               ; preds = %21
  br label %35

29:                                               ; preds = %21, %13
  %30 = load ptr, ptr %4, align 8
  %31 = getelementptr inbounds nuw %struct.SDL_Surface, ptr %30, i32 0, i32 1
  %32 = load i32, ptr %31, align 4
  %33 = lshr i32 %32, 8
  %34 = and i32 %33, 255
  br label %35

35:                                               ; preds = %29, %28
  %36 = phi i32 [ 0, %28 ], [ %34, %29 ]
  %37 = shl i32 1, %36
  %38 = icmp sgt i32 %16, %37
  br i1 %38, label %39, label %41

39:                                               ; preds = %35
  %40 = call zeroext i1 (ptr, ...) @SDL_SetError_REAL(ptr noundef @.str.9)
  store i1 %40, ptr %3, align 1
  br label %75

41:                                               ; preds = %35, %10
  %42 = load ptr, ptr %5, align 8
  %43 = load ptr, ptr %4, align 8
  %44 = getelementptr inbounds nuw %struct.SDL_Surface, ptr %43, i32 0, i32 12
  %45 = load ptr, ptr %44, align 8
  %46 = icmp ne ptr %42, %45
  br i1 %46, label %47, label %72

47:                                               ; preds = %41
  %48 = load ptr, ptr %4, align 8
  %49 = getelementptr inbounds nuw %struct.SDL_Surface, ptr %48, i32 0, i32 12
  %50 = load ptr, ptr %49, align 8
  %51 = icmp ne ptr %50, null
  br i1 %51, label %52, label %56

52:                                               ; preds = %47
  %53 = load ptr, ptr %4, align 8
  %54 = getelementptr inbounds nuw %struct.SDL_Surface, ptr %53, i32 0, i32 12
  %55 = load ptr, ptr %54, align 8
  call void @SDL_DestroyPalette_REAL(ptr noundef %55)
  br label %56

56:                                               ; preds = %52, %47
  %57 = load ptr, ptr %5, align 8
  %58 = load ptr, ptr %4, align 8
  %59 = getelementptr inbounds nuw %struct.SDL_Surface, ptr %58, i32 0, i32 12
  store ptr %57, ptr %59, align 8
  %60 = load ptr, ptr %4, align 8
  %61 = getelementptr inbounds nuw %struct.SDL_Surface, ptr %60, i32 0, i32 12
  %62 = load ptr, ptr %61, align 8
  %63 = icmp ne ptr %62, null
  br i1 %63, label %64, label %71

64:                                               ; preds = %56
  %65 = load ptr, ptr %4, align 8
  %66 = getelementptr inbounds nuw %struct.SDL_Surface, ptr %65, i32 0, i32 12
  %67 = load ptr, ptr %66, align 8
  %68 = getelementptr inbounds nuw %struct.SDL_Palette, ptr %67, i32 0, i32 3
  %69 = load i32, ptr %68, align 4
  %70 = add nsw i32 %69, 1
  store i32 %70, ptr %68, align 4
  br label %71

71:                                               ; preds = %64, %56
  br label %72

72:                                               ; preds = %71, %41
  %73 = load ptr, ptr %4, align 8
  %74 = getelementptr inbounds nuw %struct.SDL_Surface, ptr %73, i32 0, i32 17
  call void @SDL_InvalidateMap(ptr noundef %74)
  store i1 true, ptr %3, align 1
  br label %75

75:                                               ; preds = %72, %39, %8
  %76 = load i1, ptr %3, align 1
  ret i1 %76
}

; Function Attrs: nounwind uwtable
define hidden zeroext i1 @SDL_SurfaceValid(ptr noundef %0) #0 {
  %2 = alloca ptr, align 8
  store ptr %0, ptr %2, align 8
  %3 = load ptr, ptr %2, align 8
  %4 = icmp ne ptr %3, null
  br i1 %4, label %5, label %10

5:                                                ; preds = %1
  %6 = load ptr, ptr %2, align 8
  %7 = getelementptr inbounds nuw %struct.SDL_Surface, ptr %6, i32 0, i32 7
  %8 = load ptr, ptr %7, align 8
  %9 = icmp eq ptr %8, @SDL_surface_magic
  br label %10

10:                                               ; preds = %5, %1
  %11 = phi i1 [ false, %1 ], [ %9, %5 ]
  ret i1 %11
}

; Function Attrs: nounwind uwtable
define hidden ptr @SDL_CreateSurfacePalette_REAL(ptr noundef %0) #0 {
  %2 = alloca ptr, align 8
  %3 = alloca ptr, align 8
  %4 = alloca ptr, align 8
  %5 = alloca i32, align 4
  store ptr %0, ptr %3, align 8
  call void @llvm.lifetime.start.p0(i64 8, ptr %4) #8
  %6 = load ptr, ptr %3, align 8
  %7 = call zeroext i1 @SDL_SurfaceValid(ptr noundef %6)
  br i1 %7, label %10, label %8

8:                                                ; preds = %1
  %9 = call zeroext i1 (ptr, ...) @SDL_SetError_REAL(ptr noundef @.str, ptr noundef @.str.5)
  store ptr null, ptr %2, align 8
  store i32 1, ptr %5, align 4
  br label %126

10:                                               ; preds = %1
  %11 = load ptr, ptr %3, align 8
  %12 = getelementptr inbounds nuw %struct.SDL_Surface, ptr %11, i32 0, i32 1
  %13 = load i32, ptr %12, align 4
  %14 = icmp ne i32 %13, 0
  br i1 %14, label %15, label %22

15:                                               ; preds = %10
  %16 = load ptr, ptr %3, align 8
  %17 = getelementptr inbounds nuw %struct.SDL_Surface, ptr %16, i32 0, i32 1
  %18 = load i32, ptr %17, align 4
  %19 = lshr i32 %18, 28
  %20 = and i32 %19, 15
  %21 = icmp ne i32 %20, 1
  br i1 %21, label %50, label %22

22:                                               ; preds = %15, %10
  %23 = load ptr, ptr %3, align 8
  %24 = getelementptr inbounds nuw %struct.SDL_Surface, ptr %23, i32 0, i32 1
  %25 = load i32, ptr %24, align 4
  %26 = lshr i32 %25, 24
  %27 = and i32 %26, 15
  %28 = icmp eq i32 %27, 1
  br i1 %28, label %52, label %29

29:                                               ; preds = %22
  %30 = load ptr, ptr %3, align 8
  %31 = getelementptr inbounds nuw %struct.SDL_Surface, ptr %30, i32 0, i32 1
  %32 = load i32, ptr %31, align 4
  %33 = lshr i32 %32, 24
  %34 = and i32 %33, 15
  %35 = icmp eq i32 %34, 12
  br i1 %35, label %52, label %36

36:                                               ; preds = %29
  %37 = load ptr, ptr %3, align 8
  %38 = getelementptr inbounds nuw %struct.SDL_Surface, ptr %37, i32 0, i32 1
  %39 = load i32, ptr %38, align 4
  %40 = lshr i32 %39, 24
  %41 = and i32 %40, 15
  %42 = icmp eq i32 %41, 2
  br i1 %42, label %52, label %43

43:                                               ; preds = %36
  %44 = load ptr, ptr %3, align 8
  %45 = getelementptr inbounds nuw %struct.SDL_Surface, ptr %44, i32 0, i32 1
  %46 = load i32, ptr %45, align 4
  %47 = lshr i32 %46, 24
  %48 = and i32 %47, 15
  %49 = icmp eq i32 %48, 3
  br i1 %49, label %52, label %50

50:                                               ; preds = %43, %15
  %51 = call zeroext i1 (ptr, ...) @SDL_SetError_REAL(ptr noundef @.str.8)
  store ptr null, ptr %2, align 8
  store i32 1, ptr %5, align 4
  br label %126

52:                                               ; preds = %43, %36, %29, %22
  %53 = load ptr, ptr %3, align 8
  %54 = getelementptr inbounds nuw %struct.SDL_Surface, ptr %53, i32 0, i32 1
  %55 = load i32, ptr %54, align 4
  %56 = icmp ne i32 %55, 0
  br i1 %56, label %57, label %65

57:                                               ; preds = %52
  %58 = load ptr, ptr %3, align 8
  %59 = getelementptr inbounds nuw %struct.SDL_Surface, ptr %58, i32 0, i32 1
  %60 = load i32, ptr %59, align 4
  %61 = lshr i32 %60, 28
  %62 = and i32 %61, 15
  %63 = icmp ne i32 %62, 1
  br i1 %63, label %64, label %65

64:                                               ; preds = %57
  br label %71

65:                                               ; preds = %57, %52
  %66 = load ptr, ptr %3, align 8
  %67 = getelementptr inbounds nuw %struct.SDL_Surface, ptr %66, i32 0, i32 1
  %68 = load i32, ptr %67, align 4
  %69 = lshr i32 %68, 8
  %70 = and i32 %69, 255
  br label %71

71:                                               ; preds = %65, %64
  %72 = phi i32 [ 0, %64 ], [ %70, %65 ]
  %73 = shl i32 1, %72
  %74 = call ptr @SDL_CreatePalette_REAL(i32 noundef %73)
  store ptr %74, ptr %4, align 8
  %75 = load ptr, ptr %4, align 8
  %76 = icmp ne ptr %75, null
  br i1 %76, label %78, label %77

77:                                               ; preds = %71
  store ptr null, ptr %2, align 8
  store i32 1, ptr %5, align 4
  br label %126

78:                                               ; preds = %71
  %79 = load ptr, ptr %4, align 8
  %80 = getelementptr inbounds nuw %struct.SDL_Palette, ptr %79, i32 0, i32 0
  %81 = load i32, ptr %80, align 8
  %82 = icmp eq i32 %81, 2
  br i1 %82, label %83, label %114

83:                                               ; preds = %78
  %84 = load ptr, ptr %4, align 8
  %85 = getelementptr inbounds nuw %struct.SDL_Palette, ptr %84, i32 0, i32 1
  %86 = load ptr, ptr %85, align 8
  %87 = getelementptr inbounds %struct.SDL_Color, ptr %86, i64 0
  %88 = getelementptr inbounds nuw %struct.SDL_Color, ptr %87, i32 0, i32 0
  store i8 -1, ptr %88, align 1
  %89 = load ptr, ptr %4, align 8
  %90 = getelementptr inbounds nuw %struct.SDL_Palette, ptr %89, i32 0, i32 1
  %91 = load ptr, ptr %90, align 8
  %92 = getelementptr inbounds %struct.SDL_Color, ptr %91, i64 0
  %93 = getelementptr inbounds nuw %struct.SDL_Color, ptr %92, i32 0, i32 1
  store i8 -1, ptr %93, align 1
  %94 = load ptr, ptr %4, align 8
  %95 = getelementptr inbounds nuw %struct.SDL_Palette, ptr %94, i32 0, i32 1
  %96 = load ptr, ptr %95, align 8
  %97 = getelementptr inbounds %struct.SDL_Color, ptr %96, i64 0
  %98 = getelementptr inbounds nuw %struct.SDL_Color, ptr %97, i32 0, i32 2
  store i8 -1, ptr %98, align 1
  %99 = load ptr, ptr %4, align 8
  %100 = getelementptr inbounds nuw %struct.SDL_Palette, ptr %99, i32 0, i32 1
  %101 = load ptr, ptr %100, align 8
  %102 = getelementptr inbounds %struct.SDL_Color, ptr %101, i64 1
  %103 = getelementptr inbounds nuw %struct.SDL_Color, ptr %102, i32 0, i32 0
  store i8 0, ptr %103, align 1
  %104 = load ptr, ptr %4, align 8
  %105 = getelementptr inbounds nuw %struct.SDL_Palette, ptr %104, i32 0, i32 1
  %106 = load ptr, ptr %105, align 8
  %107 = getelementptr inbounds %struct.SDL_Color, ptr %106, i64 1
  %108 = getelementptr inbounds nuw %struct.SDL_Color, ptr %107, i32 0, i32 1
  store i8 0, ptr %108, align 1
  %109 = load ptr, ptr %4, align 8
  %110 = getelementptr inbounds nuw %struct.SDL_Palette, ptr %109, i32 0, i32 1
  %111 = load ptr, ptr %110, align 8
  %112 = getelementptr inbounds %struct.SDL_Color, ptr %111, i64 1
  %113 = getelementptr inbounds nuw %struct.SDL_Color, ptr %112, i32 0, i32 2
  store i8 0, ptr %113, align 1
  br label %114

114:                                              ; preds = %83, %78
  %115 = load ptr, ptr %3, align 8
  %116 = load ptr, ptr %4, align 8
  %117 = call zeroext i1 @SDL_SetSurfacePalette_REAL(ptr noundef %115, ptr noundef %116)
  br i1 %117, label %120, label %118

118:                                              ; preds = %114
  %119 = load ptr, ptr %4, align 8
  call void @SDL_DestroyPalette_REAL(ptr noundef %119)
  store ptr null, ptr %2, align 8
  store i32 1, ptr %5, align 4
  br label %126

120:                                              ; preds = %114
  br label %121

121:                                              ; preds = %120
  br label %122

122:                                              ; preds = %121
  br label %123

123:                                              ; preds = %122
  %124 = load ptr, ptr %4, align 8
  call void @SDL_DestroyPalette_REAL(ptr noundef %124)
  %125 = load ptr, ptr %4, align 8
  store ptr %125, ptr %2, align 8
  store i32 1, ptr %5, align 4
  br label %126

126:                                              ; preds = %123, %118, %77, %50, %8
  call void @llvm.lifetime.end.p0(i64 8, ptr %4) #8
  %127 = load ptr, ptr %2, align 8
  ret ptr %127
}