; Function Attrs: nounwind uwtable
define hidden ptr @SDL_CreateSurfacePalette_REAL(ptr noundef %0) local_unnamed_addr #2 {
  %.not.i = icmp eq ptr %0, null
  br i1 %.not.i, label %SDL_SurfaceValid.exit.thread, label %SDL_SurfaceValid.exit

SDL_SurfaceValid.exit:                            ; preds = %1
  %2 = getelementptr inbounds nuw i8, ptr %0, i64 40
  %3 = load ptr, ptr %2, align 8
  %4 = icmp eq ptr %3, @SDL_surface_magic
  br i1 %4, label %6, label %SDL_SurfaceValid.exit.thread

SDL_SurfaceValid.exit.thread:                     ; preds = %1, %SDL_SurfaceValid.exit
  %5 = tail call zeroext i1 (ptr, ...) @SDL_SetError_REAL(ptr noundef nonnull @.str, ptr noundef nonnull @.str.5) #10
  br label %59

6:                                                ; preds = %SDL_SurfaceValid.exit
  %7 = getelementptr inbounds nuw i8, ptr %0, i64 4
  %8 = load i32, ptr %7, align 4
  %.not = icmp eq i32 %8, 0
  %.mask = and i32 %8, -268435456
  %.not28 = icmp eq i32 %.mask, 268435456
  %or.cond = or i1 %.not, %.not28
  br i1 %or.cond, label %9, label %12

9:                                                ; preds = %6
  %10 = lshr i32 %8, 24
  %11 = and i32 %10, 15
  switch i32 %11, label %12 [
    i32 1, label %14
    i32 12, label %14
    i32 2, label %14
    i32 3, label %14
  ]

12:                                               ; preds = %9, %6
  %13 = tail call zeroext i1 (ptr, ...) @SDL_SetError_REAL(ptr noundef nonnull @.str.8) #10
  br label %59

14:                                               ; preds = %9, %9, %9, %9
  %15 = lshr i32 %8, 8
  %16 = and i32 %15, 255
  %17 = shl nuw i32 1, %16
  %18 = tail call ptr @SDL_CreatePalette_REAL(i32 noundef %17) #10
  %.not32 = icmp eq ptr %18, null
  br i1 %.not32, label %59, label %19

19:                                               ; preds = %14
  %20 = load i32, ptr %18, align 8
  %21 = icmp eq i32 %20, 2
  br i1 %21, label %22, label %SDL_SurfaceValid.exit.i

22:                                               ; preds = %19
  %23 = getelementptr inbounds nuw i8, ptr %18, i64 8
  %24 = load ptr, ptr %23, align 8
  store i8 -1, ptr %24, align 1
  %25 = load ptr, ptr %23, align 8
  %26 = getelementptr inbounds nuw i8, ptr %25, i64 1
  store i8 -1, ptr %26, align 1
  %27 = load ptr, ptr %23, align 8
  %28 = getelementptr inbounds nuw i8, ptr %27, i64 2
  store i8 -1, ptr %28, align 1
  %29 = load ptr, ptr %23, align 8
  %30 = getelementptr inbounds nuw i8, ptr %29, i64 4
  store i8 0, ptr %30, align 1
  %31 = load ptr, ptr %23, align 8
  %32 = getelementptr inbounds nuw i8, ptr %31, i64 5
  store i8 0, ptr %32, align 1
  %33 = load ptr, ptr %23, align 8
  %34 = getelementptr inbounds nuw i8, ptr %33, i64 6
  store i8 0, ptr %34, align 1
  br label %SDL_SurfaceValid.exit.i

SDL_SurfaceValid.exit.i:                          ; preds = %19, %22
  %35 = load ptr, ptr %2, align 8
  %36 = icmp eq ptr %35, @SDL_surface_magic
  br i1 %36, label %37, label %SDL_SetSurfacePalette_REAL.exit

37:                                               ; preds = %SDL_SurfaceValid.exit.i
  %38 = load i32, ptr %18, align 8
  %39 = load i32, ptr %7, align 4
  %.mask.i = and i32 %39, -268435456
  %.not20.i = icmp eq i32 %.mask.i, 268435456
  %40 = lshr i32 %39, 8
  %41 = and i32 %40, 255
  %42 = shl nuw i32 1, %41
  %43 = select i1 %.not20.i, i32 %42, i32 1
  %44 = icmp sgt i32 %38, %43
  br i1 %44, label %45, label %47

45:                                               ; preds = %37
  %46 = tail call zeroext i1 (ptr, ...) @SDL_SetError_REAL(ptr noundef nonnull @.str.9) #10
  tail call void @SDL_DestroyPalette_REAL(ptr noundef nonnull %18) #10
  %cond.fr37 = freeze i1 %46
  br i1 %cond.fr37, label %58, label %59

47:                                               ; preds = %37
  %48 = getelementptr inbounds nuw i8, ptr %0, i64 72
  %49 = load ptr, ptr %48, align 8
  %.not21.i = icmp eq ptr %18, %49
  br i1 %.not21.i, label %SDL_SetSurfacePalette_REAL.exit.thread, label %50

50:                                               ; preds = %47
  %.not22.i = icmp eq ptr %49, null
  br i1 %.not22.i, label %52, label %51

51:                                               ; preds = %50
  tail call void @SDL_DestroyPalette_REAL(ptr noundef nonnull %49) #10
  br label %52

52:                                               ; preds = %50, %51
  store ptr %18, ptr %48, align 8
  %53 = getelementptr inbounds nuw i8, ptr %18, i64 20
  %54 = load i32, ptr %53, align 4
  %55 = add nsw i32 %54, 1
  store i32 %55, ptr %53, align 4
  br label %SDL_SetSurfacePalette_REAL.exit.thread

SDL_SetSurfacePalette_REAL.exit.thread:           ; preds = %47, %52
  %56 = getelementptr inbounds nuw i8, ptr %0, i64 120
  tail call void @SDL_InvalidateMap(ptr noundef nonnull %56) #10
  tail call void @SDL_DestroyPalette_REAL(ptr noundef nonnull %18) #10
  br label %58

SDL_SetSurfacePalette_REAL.exit:                  ; preds = %SDL_SurfaceValid.exit.i
  %57 = tail call zeroext i1 (ptr, ...) @SDL_SetError_REAL(ptr noundef nonnull @.str, ptr noundef nonnull @.str.5) #10
  tail call void @SDL_DestroyPalette_REAL(ptr noundef nonnull %18) #10
  %cond.fr = freeze i1 %57
  br i1 %cond.fr, label %58, label %59

58:                                               ; preds = %45, %SDL_SetSurfacePalette_REAL.exit.thread, %SDL_SetSurfacePalette_REAL.exit
  br label %59

59:                                               ; preds = %58, %SDL_SetSurfacePalette_REAL.exit, %45, %14, %12, %SDL_SurfaceValid.exit.thread
  %.0 = phi ptr [ null, %12 ], [ null, %SDL_SurfaceValid.exit.thread ], [ null, %14 ], [ %18, %58 ], [ null, %SDL_SetSurfacePalette_REAL.exit ], [ null, %45 ]
  ret ptr %.0
}